; Function Attrs: mustprogress uwtable
define void @_ZN5Yosys8log_wireEPNS_5RTLIL4WireENSt7__cxx1112basic_stringIcSt11char_traitsIcESaIcEEE(ptr noundef %0, ptr noundef %1) local_unnamed_addr #4 personality ptr @__gxx_personality_v0 {
  %3 = alloca %"class.std::__cxx11::basic_stringstream", align 8
  %4 = alloca %"class.std::__cxx11::basic_string", align 8
  %5 = alloca %"class.std::__cxx11::basic_string", align 8
  call void @_ZNSt7__cxx1118basic_stringstreamIcSt11char_traitsIcESaIcEEC1Ev(ptr noundef nonnull align 8 dereferenceable(128) %3)
  invoke void @_ZNSt7__cxx1112basic_stringIcSt11char_traitsIcESaIcEEC1ERKS4_(ptr noundef nonnull align 8 dereferenceable(32) %4, ptr noundef nonnull align 8 dereferenceable(32) %1)
          to label %6 unwind label %12

6:                                                ; preds = %2
  %7 = getelementptr inbounds i8, ptr %3, i64 16
  invoke void @_ZN5Yosys13RTLIL_BACKEND9dump_wireERSoNSt7__cxx1112basic_stringIcSt11char_traitsIcESaIcEEEPKNS_5RTLIL4WireE(ptr noundef nonnull align 8 dereferenceable(8) %7, ptr noundef nonnull %4, ptr noundef %0)
          to label %8 unwind label %14

8:                                                ; preds = %6
  call void @_ZNSt7__cxx1112basic_stringIcSt11char_traitsIcESaIcEED1Ev(ptr noundef nonnull align 8 dereferenceable(32) %4) #27
  invoke void @_ZNKSt7__cxx1118basic_stringstreamIcSt11char_traitsIcESaIcEE3strEv(ptr dead_on_unwind nonnull writable sret(%"class.std::__cxx11::basic_string") align 8 %5, ptr noundef nonnull align 8 dereferenceable(128) %3)
          to label %9 unwind label %12

9:                                                ; preds = %8
  %10 = call noundef ptr @_ZNKSt7__cxx1112basic_stringIcSt11char_traitsIcESaIcEE5c_strEv(ptr noundef nonnull align 8 dereferenceable(32) %5) #27
  invoke void (ptr, ...) @_ZN5Yosys3logEPKcz(ptr noundef nonnull @.str.19, ptr noundef %10)
          to label %11 unwind label %16

11:                                               ; preds = %9
  call void @_ZNSt7__cxx1112basic_stringIcSt11char_traitsIcESaIcEED1Ev(ptr noundef nonnull align 8 dereferenceable(32) %5) #27
  call void @_ZNSt7__cxx1118basic_stringstreamIcSt11char_traitsIcESaIcEED1Ev(ptr noundef nonnull align 8 dereferenceable(128) %3) #27
  ret void

12:                                               ; preds = %8, %2
  %13 = landingpad { ptr, i32 }
          cleanup
  br label %18

14:                                               ; preds = %6
  %15 = landingpad { ptr, i32 }
          cleanup
  call void @_ZNSt7__cxx1112basic_stringIcSt11char_traitsIcESaIcEED1Ev(ptr noundef nonnull align 8 dereferenceable(32) %4) #27
  br label %18

16:                                               ; preds = %9
  %17 = landingpad { ptr, i32 }
          cleanup
  call void @_ZNSt7__cxx1112basic_stringIcSt11char_traitsIcESaIcEED1Ev(ptr noundef nonnull align 8 dereferenceable(32) %5) #27
  br label %18

18:                                               ; preds = %16, %14, %12
  %.pn = phi { ptr, i32 } [ %17, %16 ], [ %13, %12 ], [ %15, %14 ]
  call void @_ZNSt7__cxx1118basic_stringstreamIcSt11char_traitsIcESaIcEED1Ev(ptr noundef nonnull align 8 dereferenceable(128) %3) #27
  resume { ptr, i32 } %.pn
}